target datalayout = "e-m:e-p270:32:32-p271:32:32-p272:64:64-i64:64-i128:128-f80:128-n8:16:32:64-S128"
target triple = "x86_64-pc-linux-gnu"

%"class.seq::skolem" = type { ptr, ptr, %class.seq_util, %class.arith_util, %class.symbol, %class.symbol, %class.symbol, %class.symbol, %class.symbol, %class.symbol, %class.symbol, %class.symbol, %class.symbol, %class.symbol, %class.symbol, %class.symbol, %class.symbol, %class.symbol, %class.symbol, %class.symbol, %class.symbol, %class.symbol, %class.symbol, %class.symbol, %class.symbol }
%class.seq_util = type { ptr, ptr, ptr, i32, [4 x i8], %"class.seq_util::str", %"class.seq_util::rex" }
%"class.seq_util::str" = type <{ ptr, ptr, i32, [4 x i8] }>
%"class.seq_util::rex" = type { ptr, ptr, i32, %class.vector, %class.ref_vector, %"struct.seq_util::rex::info", %"struct.seq_util::rex::info" }
%class.vector = type { ptr }
%class.ref_vector = type { %class.ref_vector_core }
%class.ref_vector_core = type { %class.ref_manager_wrapper, %class.ptr_vector }
%class.ref_manager_wrapper = type { ptr }
%class.ptr_vector = type { %class.vector.0 }
%class.vector.0 = type { ptr }
%"struct.seq_util::rex::info" = type { i32, i8, i32, i32 }
%class.arith_util = type { ptr, ptr }
%class.symbol = type { ptr }
%class.obj_ref = type { ptr, ptr }
%class.ast = type { i32, i32, i32, i32 }

@.str.25 = private unnamed_addr constant [13 x i8] c"seq.digit2bv\00", align 1

; Function Attrs: mustprogress nounwind uwtable
define linkonce_odr hidden void @_ZN3ast7inc_refEv(ptr noundef nonnull align 4 dereferenceable(16) %0) #5 comdat align 2 {
  %2 = alloca ptr, align 8
  store ptr %0, ptr %2, align 8, !tbaa !123
  %3 = load ptr, ptr %2, align 8
  %4 = getelementptr inbounds nuw %class.ast, ptr %3, i32 0, i32 2
  %5 = load i32, ptr %4, align 4, !tbaa !266
  %6 = add i32 %5, 1
  store i32 %6, ptr %4, align 4, !tbaa !266
  ret void
}

; Function Attrs: mustprogress uwtable
define linkonce_odr hidden void @_ZN11ast_manager7inc_refEP3ast(ptr noundef nonnull align 8 dereferenceable(976) %0, ptr noundef %1) #4 comdat align 2 {
  %3 = alloca ptr, align 8
  %4 = alloca ptr, align 8
  store ptr %0, ptr %3, align 8, !tbaa !8
  store ptr %1, ptr %4, align 8, !tbaa !123
  %5 = load ptr, ptr %4, align 8, !tbaa !123
  %6 = icmp ne ptr %5, null
  br i1 %6, label %7, label %9

7:                                                ; preds = %2
  %8 = load ptr, ptr %4, align 8, !tbaa !123
  call void @_ZN3ast7inc_refEv(ptr noundef nonnull align 4 dereferenceable(16) %8)
  br label %9

9:                                                ; preds = %7, %2
  ret void
}

; Function Attrs: mustprogress uwtable
define linkonce_odr hidden void @_ZN7obj_refI4expr11ast_managerE7inc_refEv(ptr noundef nonnull align 8 dereferenceable(16) %0) #4 comdat align 2 {
  %2 = alloca ptr, align 8
  store ptr %0, ptr %2, align 8, !tbaa !54
  %3 = load ptr, ptr %2, align 8
  %4 = getelementptr inbounds nuw %class.obj_ref, ptr %3, i32 0, i32 0
  %5 = load ptr, ptr %4, align 8, !tbaa !56
  %6 = icmp ne ptr %5, null
  br i1 %6, label %7, label %12

7:                                                ; preds = %1
  %8 = getelementptr inbounds nuw %class.obj_ref, ptr %3, i32 0, i32 1
  %9 = load ptr, ptr %8, align 8, !tbaa !150
  %10 = getelementptr inbounds nuw %class.obj_ref, ptr %3, i32 0, i32 0
  %11 = load ptr, ptr %10, align 8, !tbaa !56
  call void @_ZN11ast_manager7inc_refEP3ast(ptr noundef nonnull align 8 dereferenceable(976) %9, ptr noundef %11)
  br label %12

12:                                               ; preds = %7, %1
  ret void
}

; Function Attrs: mustprogress uwtable
define linkonce_odr hidden void @_ZN7obj_refI4expr11ast_managerEC2EPS0_RS1_(ptr noundef nonnull align 8 dereferenceable(16) %0, ptr noundef %1, ptr noundef nonnull align 8 dereferenceable(976) %2) unnamed_addr #4 comdat align 2 {
  %4 = alloca ptr, align 8
  %5 = alloca ptr, align 8
  %6 = alloca ptr, align 8
  store ptr %0, ptr %4, align 8, !tbaa !54
  store ptr %1, ptr %5, align 8, !tbaa !41
  store ptr %2, ptr %6, align 8, !tbaa !8
  %7 = load ptr, ptr %4, align 8
  %8 = getelementptr inbounds nuw %class.obj_ref, ptr %7, i32 0, i32 0
  %9 = load ptr, ptr %5, align 8, !tbaa !41
  store ptr %9, ptr %8, align 8, !tbaa !56
  %10 = getelementptr inbounds nuw %class.obj_ref, ptr %7, i32 0, i32 1
  %11 = load ptr, ptr %6, align 8, !tbaa !8
  store ptr %11, ptr %10, align 8, !tbaa !8
  call void @_ZN7obj_refI4expr11ast_managerE7inc_refEv(ptr noundef nonnull align 8 dereferenceable(16) %7)
  ret void
}

; Function Attrs: mustprogress uwtable
define hidden void @_ZN3seq6skolem2mkERK6symbolP4exprS5_S5_S5_P4sortb(ptr dead_on_unwind noalias writable sret(%class.obj_ref) align 8 %0, ptr noundef nonnull align 8 dereferenceable(336) %1, ptr noundef nonnull align 8 dereferenceable(8) %2, ptr noundef %3, ptr noundef %4, ptr noundef %5, ptr noundef %6, ptr noundef %7, i1 noundef zeroext %8) #4 align 2 personality ptr @__gxx_personality_v0 {
  %10 = alloca ptr, align 8
  %11 = alloca ptr, align 8
  %12 = alloca ptr, align 8
  %13 = alloca ptr, align 8
  %14 = alloca ptr, align 8
  %15 = alloca ptr, align 8
  %16 = alloca ptr, align 8
  %17 = alloca ptr, align 8
  %18 = alloca i8, align 1
  %19 = alloca [4 x ptr], align 16
  %20 = alloca i32, align 4
  %21 = alloca i1, align 1
  %22 = alloca ptr, align 8
  %23 = alloca i32, align 4
  store ptr %0, ptr %10, align 8
  store ptr %1, ptr %11, align 8, !tbaa !3
  store ptr %2, ptr %12, align 8, !tbaa !36
  store ptr %3, ptr %13, align 8, !tbaa !41
  store ptr %4, ptr %14, align 8, !tbaa !41
  store ptr %5, ptr %15, align 8, !tbaa !41
  store ptr %6, ptr %16, align 8, !tbaa !41
  store ptr %7, ptr %17, align 8, !tbaa !43
  %24 = zext i1 %8 to i8
  store i8 %24, ptr %18, align 1, !tbaa !45
  %25 = load ptr, ptr %11, align 8
  call void @llvm.lifetime.start.p0(i64 32, ptr %19) #3
  %26 = load ptr, ptr %13, align 8, !tbaa !41
  store ptr %26, ptr %19, align 8, !tbaa !41
  %27 = getelementptr inbounds ptr, ptr %19, i64 1
  %28 = load ptr, ptr %14, align 8, !tbaa !41
  store ptr %28, ptr %27, align 8, !tbaa !41
  %29 = getelementptr inbounds ptr, ptr %19, i64 2
  %30 = load ptr, ptr %15, align 8, !tbaa !41
  store ptr %30, ptr %29, align 8, !tbaa !41
  %31 = getelementptr inbounds ptr, ptr %19, i64 3
  %32 = load ptr, ptr %16, align 8, !tbaa !41
  store ptr %32, ptr %31, align 8, !tbaa !41
  call void @llvm.lifetime.start.p0(i64 4, ptr %20) #3
  %33 = load ptr, ptr %16, align 8, !tbaa !41
  %34 = icmp ne ptr %33, null
  br i1 %34, label %35, label %36

35:                                               ; preds = %9
  br label %52

36:                                               ; preds = %9
  %37 = load ptr, ptr %15, align 8, !tbaa !41
  %38 = icmp ne ptr %37, null
  br i1 %38, label %39, label %40

39:                                               ; preds = %36
  br label %50

40:                                               ; preds = %36
  %41 = load ptr, ptr %14, align 8, !tbaa !41
  %42 = icmp ne ptr %41, null
  br i1 %42, label %43, label %44

43:                                               ; preds = %40
  br label %48

44:                                               ; preds = %40
  %45 = load ptr, ptr %13, align 8, !tbaa !41
  %46 = icmp ne ptr %45, null
  %47 = select i1 %46, i32 1, i32 0
  br label %48

48:                                               ; preds = %44, %43
  %49 = phi i32 [ 2, %43 ], [ %47, %44 ]
  br label %50

50:                                               ; preds = %48, %39
  %51 = phi i32 [ 3, %39 ], [ %49, %48 ]
  br label %52

52:                                               ; preds = %50, %35
  %53 = phi i32 [ 4, %35 ], [ %51, %50 ]
  store i32 %53, ptr %20, align 4, !tbaa !46
  %54 = load ptr, ptr %17, align 8, !tbaa !43
  %55 = icmp ne ptr %54, null
  br i1 %55, label %59, label %56

56:                                               ; preds = %52
  %57 = load ptr, ptr %13, align 8, !tbaa !41
  %58 = call noundef ptr @_ZNK4expr8get_sortEv(ptr noundef nonnull align 4 dereferenceable(16) %57)
  store ptr %58, ptr %17, align 8, !tbaa !43
  br label %59

59:                                               ; preds = %56, %52
  store i1 false, ptr %21, align 1
  %60 = getelementptr inbounds nuw %"class.seq::skolem", ptr %25, i32 0, i32 2
  %61 = load ptr, ptr %12, align 8, !tbaa !36
  %62 = load i32, ptr %20, align 4, !tbaa !46
  %63 = getelementptr inbounds [4 x ptr], ptr %19, i64 0, i64 0
  %64 = load ptr, ptr %17, align 8, !tbaa !43
  %65 = call noundef ptr @_ZN8seq_util9mk_skolemERK6symboljPKP4exprP4sort(ptr noundef nonnull align 8 dereferenceable(136) %60, ptr noundef nonnull align 8 dereferenceable(8) %61, i32 noundef %62, ptr noundef %63, ptr noundef %64)
  %66 = getelementptr inbounds nuw %"class.seq::skolem", ptr %25, i32 0, i32 0
  %67 = load ptr, ptr %66, align 8, !tbaa !47
  call void @_ZN7obj_refI4expr11ast_managerEC2EPS0_RS1_(ptr noundef nonnull align 8 dereferenceable(16) %0, ptr noundef %65, ptr noundef nonnull align 8 dereferenceable(976) %67)
  %68 = load i8, ptr %18, align 1, !tbaa !45, !range !51, !noundef !52
  %69 = trunc i8 %68 to i1
  br i1 %69, label %70, label %78

70:                                               ; preds = %59
  %71 = getelementptr inbounds nuw %"class.seq::skolem", ptr %25, i32 0, i32 1
  %72 = load ptr, ptr %71, align 8, !tbaa !53
  invoke void @_ZN11th_rewriterclER7obj_refI4expr11ast_managerE(ptr noundef nonnull align 8 dereferenceable(16) %72, ptr noundef nonnull align 8 dereferenceable(16) %0)
          to label %73 unwind label %74

73:                                               ; preds = %70
  br label %78

74:                                               ; preds = %70
  %75 = landingpad { ptr, i32 }
          cleanup
  %76 = extractvalue { ptr, i32 } %75, 0
  store ptr %76, ptr %22, align 8
  %77 = extractvalue { ptr, i32 } %75, 1
  store i32 %77, ptr %23, align 4
  call void @_ZN7obj_refI4expr11ast_managerED2Ev(ptr noundef nonnull align 8 dereferenceable(16) %0) #3
  call void @llvm.lifetime.end.p0(i64 4, ptr %20) #3
  call void @llvm.lifetime.end.p0(i64 32, ptr %19) #3
  br label %82

78:                                               ; preds = %73, %59
  store i1 true, ptr %21, align 1
  %79 = load i1, ptr %21, align 1
  br i1 %79, label %81, label %80

80:                                               ; preds = %78
  call void @_ZN7obj_refI4expr11ast_managerED2Ev(ptr noundef nonnull align 8 dereferenceable(16) %0) #3
  br label %81

81:                                               ; preds = %80, %78
  call void @llvm.lifetime.end.p0(i64 4, ptr %20) #3
  call void @llvm.lifetime.end.p0(i64 32, ptr %19) #3
  ret void

82:                                               ; preds = %74
  %83 = load ptr, ptr %22, align 8
  %84 = load i32, ptr %23, align 4
  %85 = insertvalue { ptr, i32 } poison, ptr %83, 0
  %86 = insertvalue { ptr, i32 } %85, i32 %84, 1
  resume { ptr, i32 } %86
}

; Function Attrs: mustprogress uwtable
define hidden void @_ZN3seq6skolem11mk_digit2bvEP4exprP4sort(ptr dead_on_unwind noalias writable sret(%class.obj_ref) align 8 %0, ptr noundef nonnull align 8 dereferenceable(336) %1, ptr noundef %2, ptr noundef %3) #4 align 2 {
  %5 = alloca ptr, align 8
  %6 = alloca ptr, align 8
  %7 = alloca ptr, align 8
  %8 = alloca ptr, align 8
  %9 = alloca %class.symbol, align 8
  store ptr %0, ptr %5, align 8
  store ptr %1, ptr %6, align 8, !tbaa !3
  store ptr %2, ptr %7, align 8, !tbaa !41
  store ptr %3, ptr %8, align 8, !tbaa !43
  %10 = load ptr, ptr %6, align 8
  call void @llvm.lifetime.start.p0(i64 8, ptr %9) #3
  call void @_ZN6symbolC1EPKc(ptr noundef nonnull align 8 dereferenceable(8) %9, ptr noundef @.str.25)
  %11 = load ptr, ptr %7, align 8, !tbaa !41
  %12 = load ptr, ptr %8, align 8, !tbaa !43
  call void @_ZN3seq6skolem2mkERK6symbolP4exprS5_S5_S5_P4sortb(ptr dead_on_unwind writable sret(%class.obj_ref) align 8 %0, ptr noundef nonnull align 8 dereferenceable(336) %10, ptr noundef nonnull align 8 dereferenceable(8) %9, ptr noundef %11, ptr noundef null, ptr noundef null, ptr noundef null, ptr noundef %12, i1 noundef zeroext true)
  call void @llvm.lifetime.end.p0(i64 8, ptr %9) #3
  ret void
}