; Function Attrs: mustprogress uwtable
define hidden void @_ZN3seq6skolem11mk_digit2bvEP4exprP4sort(ptr dead_on_unwind noalias writable sret(%class.obj_ref) align 8 initializes((0, 16)) %0, ptr noundef nonnull align 8 dereferenceable(336) %1, ptr noundef %2, ptr noundef %3) local_unnamed_addr #3 align 2 personality ptr @__gxx_personality_v0 {
  %5 = alloca [4 x ptr], align 16
  %6 = alloca %class.symbol, align 8
  call void @llvm.lifetime.start.p0(i64 8, ptr nonnull %6) #20
  call void @_ZN6symbolC1EPKc(ptr noundef nonnull align 8 dereferenceable(8) %6, ptr noundef nonnull @.str.25)
  call void @llvm.experimental.noalias.scope.decl(metadata !205)
  call void @llvm.lifetime.start.p0(i64 32, ptr nonnull %5) #20, !noalias !205
  store ptr %2, ptr %5, align 16, !tbaa !56, !noalias !205
  %7 = getelementptr inbounds nuw i8, ptr %5, i64 8
  %.not20.i = icmp ne ptr %2, null
  %8 = zext i1 %.not20.i to i32
  %.not21.i = icmp eq ptr %3, null
  call void @llvm.memset.p0.i64(ptr noundef nonnull align 8 dereferenceable(24) %7, i8 0, i64 24, i1 false)
  br i1 %.not21.i, label %9, label %11

9:                                                ; preds = %4
  %10 = call noundef ptr @_ZNK4expr8get_sortEv(ptr noundef nonnull align 4 dereferenceable(16) %2), !noalias !205
  br label %11

11:                                               ; preds = %9, %4
  %.0.i = phi ptr [ %3, %4 ], [ %10, %9 ]
  %12 = getelementptr inbounds nuw i8, ptr %1, i64 16
  %13 = call noundef ptr @_ZN8seq_util9mk_skolemERK6symboljPKP4exprP4sort(ptr noundef nonnull align 8 dereferenceable(136) %12, ptr noundef nonnull align 8 dereferenceable(8) %6, i32 noundef %8, ptr noundef nonnull %5, ptr noundef %.0.i), !noalias !205
  %14 = load ptr, ptr %1, align 8, !tbaa !63, !noalias !205
  store ptr %13, ptr %0, align 8, !tbaa !67, !alias.scope !205
  %15 = getelementptr inbounds nuw i8, ptr %0, i64 8
  store ptr %14, ptr %15, align 8, !tbaa !3, !alias.scope !205
  %.not.i.i.i = icmp eq ptr %13, null
  br i1 %.not.i.i.i, label %_ZN7obj_refI4expr11ast_managerEC2EPS0_RS1_.exit.i, label %_ZN11ast_manager7inc_refEP3ast.exit.i.i.i

_ZN11ast_manager7inc_refEP3ast.exit.i.i.i:        ; preds = %11
  %16 = getelementptr inbounds nuw i8, ptr %13, i64 8
  %17 = load i32, ptr %16, align 4, !tbaa !59, !noalias !205
  %18 = add i32 %17, 1
  store i32 %18, ptr %16, align 4, !tbaa !59, !noalias !205
  br label %_ZN7obj_refI4expr11ast_managerEC2EPS0_RS1_.exit.i

_ZN7obj_refI4expr11ast_managerEC2EPS0_RS1_.exit.i: ; preds = %_ZN11ast_manager7inc_refEP3ast.exit.i.i.i, %11
  %19 = getelementptr inbounds nuw i8, ptr %1, i64 8
  %20 = load ptr, ptr %19, align 8, !tbaa !69, !noalias !205
  invoke void @_ZN11th_rewriterclER7obj_refI4expr11ast_managerE(ptr noundef nonnull align 8 dereferenceable(16) %20, ptr noundef nonnull align 8 dereferenceable(16) %0)
          to label %_ZN3seq6skolem2mkERK6symbolP4exprS5_S5_S5_P4sortb.exit unwind label %21

21:                                               ; preds = %_ZN7obj_refI4expr11ast_managerEC2EPS0_RS1_.exit.i
  %22 = landingpad { ptr, i32 }
          cleanup
  call void @_ZN7obj_refI4expr11ast_managerED2Ev(ptr noundef nonnull align 8 dereferenceable(16) %0) #20
  call void @llvm.lifetime.end.p0(i64 32, ptr nonnull %5) #20, !noalias !205
  resume { ptr, i32 } %22

_ZN3seq6skolem2mkERK6symbolP4exprS5_S5_S5_P4sortb.exit: ; preds = %_ZN7obj_refI4expr11ast_managerEC2EPS0_RS1_.exit.i
  call void @llvm.lifetime.end.p0(i64 32, ptr nonnull %5) #20, !noalias !205
  call void @llvm.lifetime.end.p0(i64 8, ptr nonnull %6) #20
  ret void
}